target datalayout = "e-m:e-p270:32:32-p271:32:32-p272:64:64-i64:64-i128:128-f80:128-n8:16:32:64-S128"
target triple = "x86_64-pc-linux-gnu"

%"struct.std::_Rb_tree_node_base" = type { i32, ptr, ptr, ptr }
%"struct.std::pair" = type { i32, ptr }
%"struct.std::_Rb_tree_const_iterator" = type { ptr }
%"class.base::(anonymous namespace)::PersistentSampleMapIterator" = type { %"class.base::SampleCountIterator", %"struct.std::_Rb_tree_const_iterator", %"struct.std::_Rb_tree_const_iterator" }
%"class.base::SampleCountIterator" = type { ptr }
%"struct.std::_Rb_tree_node" = type { %"struct.std::_Rb_tree_node_base", %"struct.__gnu_cxx::__aligned_membuf" }
%"struct.__gnu_cxx::__aligned_membuf" = type { [16 x i8] }

; Function Attrs: mustprogress nounwind uwtable
define linkonce_odr noundef ptr @_ZNK9__gnu_cxx16__aligned_membufISt4pairIKiPiEE7_M_addrEv(ptr noundef nonnull align 8 dereferenceable(16) %0) #2 comdat align 2 {
  %2 = alloca ptr, align 8
  store ptr %0, ptr %2, align 8, !tbaa !128
  %3 = load ptr, ptr %2, align 8
  %4 = getelementptr inbounds nuw %"struct.__gnu_cxx::__aligned_membuf", ptr %3, i32 0, i32 0
  ret ptr %4
}

; Function Attrs: mustprogress nounwind uwtable
define linkonce_odr noundef ptr @_ZNK9__gnu_cxx16__aligned_membufISt4pairIKiPiEE6_M_ptrEv(ptr noundef nonnull align 8 dereferenceable(16) %0) #2 comdat align 2 {
  %2 = alloca ptr, align 8
  store ptr %0, ptr %2, align 8, !tbaa !128
  %3 = load ptr, ptr %2, align 8
  %4 = call noundef ptr @_ZNK9__gnu_cxx16__aligned_membufISt4pairIKiPiEE7_M_addrEv(ptr noundef nonnull align 8 dereferenceable(16) %3) #14
  ret ptr %4
}

; Function Attrs: noinline noreturn nounwind uwtable
define linkonce_odr hidden void @__clang_call_terminate(ptr noundef %0) #3 comdat {
  %2 = call ptr @__cxa_begin_catch(ptr %0) #14
  call void @_ZSt9terminatev() #15
  unreachable
}

; Function Attrs: mustprogress nounwind uwtable
define linkonce_odr noundef ptr @_ZNKSt13_Rb_tree_nodeISt4pairIKiPiEE9_M_valptrEv(ptr noundef nonnull align 8 dereferenceable(48) %0) #2 comdat align 2 {
  %2 = alloca ptr, align 8
  store ptr %0, ptr %2, align 8, !tbaa !123
  %3 = load ptr, ptr %2, align 8
  %4 = getelementptr inbounds nuw %"struct.std::_Rb_tree_node", ptr %3, i32 0, i32 1
  %5 = call noundef ptr @_ZNK9__gnu_cxx16__aligned_membufISt4pairIKiPiEE6_M_ptrEv(ptr noundef nonnull align 8 dereferenceable(16) %4) #14
  ret ptr %5
}

; Function Attrs: mustprogress nounwind uwtable
define linkonce_odr noundef ptr @_ZNKSt23_Rb_tree_const_iteratorISt4pairIKiPiEEptEv(ptr noundef nonnull align 8 dereferenceable(8) %0) #2 comdat align 2 personality ptr @__gxx_personality_v0 {
  %2 = alloca ptr, align 8
  store ptr %0, ptr %2, align 8, !tbaa !52
  %3 = load ptr, ptr %2, align 8
  %4 = getelementptr inbounds nuw %"struct.std::_Rb_tree_const_iterator", ptr %3, i32 0, i32 0
  %5 = load ptr, ptr %4, align 8, !tbaa !54
  %6 = invoke noundef ptr @_ZNKSt13_Rb_tree_nodeISt4pairIKiPiEE9_M_valptrEv(ptr noundef nonnull align 8 dereferenceable(48) %5)
          to label %7 unwind label %8

7:                                                ; preds = %1
  ret ptr %6

8:                                                ; preds = %1
  %9 = landingpad { ptr, i32 }
          catch ptr null
  %10 = extractvalue { ptr, i32 } %9, 0
  call void @__clang_call_terminate(ptr %10) #15
  unreachable
}

; Function Attrs: mustprogress nounwind uwtable
define internal void @_ZNK4base12_GLOBAL__N_127PersistentSampleMapIterator3GetEPiS2_S2_(ptr noundef nonnull align 8 dereferenceable(24) %0, ptr noundef %1, ptr noundef %2, ptr noundef %3) unnamed_addr #2 align 2 {
  %5 = alloca ptr, align 8
  %6 = alloca ptr, align 8
  %7 = alloca ptr, align 8
  %8 = alloca ptr, align 8
  store ptr %0, ptr %5, align 8, !tbaa !56
  store ptr %1, ptr %6, align 8, !tbaa !35
  store ptr %2, ptr %7, align 8, !tbaa !35
  store ptr %3, ptr %8, align 8, !tbaa !35
  %9 = load ptr, ptr %5, align 8
  %10 = load ptr, ptr %6, align 8, !tbaa !35
  %11 = icmp ne ptr %10, null
  br i1 %11, label %12, label %18

12:                                               ; preds = %4
  %13 = getelementptr inbounds nuw %"class.base::(anonymous namespace)::PersistentSampleMapIterator", ptr %9, i32 0, i32 1
  %14 = call noundef ptr @_ZNKSt23_Rb_tree_const_iteratorISt4pairIKiPiEEptEv(ptr noundef nonnull align 8 dereferenceable(8) %13) #14
  %15 = getelementptr inbounds nuw %"struct.std::pair", ptr %14, i32 0, i32 0
  %16 = load i32, ptr %15, align 8, !tbaa !131
  %17 = load ptr, ptr %6, align 8, !tbaa !35
  store i32 %16, ptr %17, align 4, !tbaa !34
  br label %18

18:                                               ; preds = %12, %4
  %19 = load ptr, ptr %7, align 8, !tbaa !35
  %20 = icmp ne ptr %19, null
  br i1 %20, label %21, label %28

21:                                               ; preds = %18
  %22 = getelementptr inbounds nuw %"class.base::(anonymous namespace)::PersistentSampleMapIterator", ptr %9, i32 0, i32 1
  %23 = call noundef ptr @_ZNKSt23_Rb_tree_const_iteratorISt4pairIKiPiEEptEv(ptr noundef nonnull align 8 dereferenceable(8) %22) #14
  %24 = getelementptr inbounds nuw %"struct.std::pair", ptr %23, i32 0, i32 0
  %25 = load i32, ptr %24, align 8, !tbaa !131
  %26 = add nsw i32 %25, 1
  %27 = load ptr, ptr %7, align 8, !tbaa !35
  store i32 %26, ptr %27, align 4, !tbaa !34
  br label %28

28:                                               ; preds = %21, %18
  %29 = load ptr, ptr %8, align 8, !tbaa !35
  %30 = icmp ne ptr %29, null
  br i1 %30, label %31, label %38

31:                                               ; preds = %28
  %32 = getelementptr inbounds nuw %"class.base::(anonymous namespace)::PersistentSampleMapIterator", ptr %9, i32 0, i32 1
  %33 = call noundef ptr @_ZNKSt23_Rb_tree_const_iteratorISt4pairIKiPiEEptEv(ptr noundef nonnull align 8 dereferenceable(8) %32) #14
  %34 = getelementptr inbounds nuw %"struct.std::pair", ptr %33, i32 0, i32 1
  %35 = load ptr, ptr %34, align 8, !tbaa !37
  %36 = load i32, ptr %35, align 4, !tbaa !34
  %37 = load ptr, ptr %8, align 8, !tbaa !35
  store i32 %36, ptr %37, align 4, !tbaa !34
  br label %38

38:                                               ; preds = %31, %28
  ret void
}