; Function Attrs: mustprogress nofree norecurse nosync nounwind willreturn memory(read, argmem: readwrite, inaccessiblemem: none) uwtable
define internal void @_ZNK4base12_GLOBAL__N_127PersistentSampleMapIterator3GetEPiS2_S2_(ptr noundef nonnull readonly align 8 captures(none) dereferenceable(24) %0, ptr noundef writeonly captures(address_is_null) %1, ptr noundef writeonly captures(address_is_null) %2, ptr noundef writeonly captures(address_is_null) %3) unnamed_addr #10 align 2 personality ptr @__gxx_personality_v0 {
  %.not = icmp eq ptr %1, null
  br i1 %.not, label %10, label %5

5:                                                ; preds = %4
  %6 = getelementptr inbounds nuw i8, ptr %0, i64 8
  %7 = load ptr, ptr %6, align 8, !tbaa !66
  %8 = getelementptr inbounds nuw i8, ptr %7, i64 32
  %9 = load i32, ptr %8, align 8, !tbaa !77
  store i32 %9, ptr %1, align 4, !tbaa !32
  br label %10

10:                                               ; preds = %5, %4
  %.not9 = icmp eq ptr %2, null
  br i1 %.not9, label %17, label %11

11:                                               ; preds = %10
  %12 = getelementptr inbounds nuw i8, ptr %0, i64 8
  %13 = load ptr, ptr %12, align 8, !tbaa !66
  %14 = getelementptr inbounds nuw i8, ptr %13, i64 32
  %15 = load i32, ptr %14, align 8, !tbaa !77
  %16 = add nsw i32 %15, 1
  store i32 %16, ptr %2, align 4, !tbaa !32
  br label %17

17:                                               ; preds = %11, %10
  %.not10 = icmp eq ptr %3, null
  br i1 %.not10, label %24, label %18

18:                                               ; preds = %17
  %19 = getelementptr inbounds nuw i8, ptr %0, i64 8
  %20 = load ptr, ptr %19, align 8, !tbaa !66
  %21 = getelementptr inbounds nuw i8, ptr %20, i64 40
  %22 = load ptr, ptr %21, align 8, !tbaa !36
  %23 = load i32, ptr %22, align 4, !tbaa !32
  store i32 %23, ptr %3, align 4, !tbaa !32
  br label %24

24:                                               ; preds = %18, %17
  ret void
}